target datalayout = "e-m:e-p270:32:32-p271:32:32-p272:64:64-i64:64-i128:128-f80:128-n8:16:32:64-S128"
target triple = "x86_64-pc-linux-gnu"

@hf_mikey = internal global [71 x i32] zeroinitializer, align 16
@.str.301 = private unnamed_addr constant [8 x i8] c"Unknown\00", align 1
@.str.305 = private unnamed_addr constant [10 x i8] c" Type: %s\00", align 1

; Function Attrs: null_pointer_is_valid sspstrong uwtable
define internal i32 @dissect_payload_keydata(ptr noundef %0, ptr noundef %1, ptr noundef %2, ptr noundef %3) #0 {
  %5 = alloca ptr, align 8
  %6 = alloca ptr, align 8
  %7 = alloca ptr, align 8
  %8 = alloca ptr, align 8
  %9 = alloca i16, align 2
  %10 = alloca i16, align 2
  %11 = alloca i8, align 1
  %12 = alloca i8, align 1
  %13 = alloca ptr, align 8
  %14 = alloca i16, align 2
  %15 = alloca i16, align 2
  %16 = alloca i16, align 2
  %17 = alloca i16, align 2
  store ptr %0, ptr %5, align 8
  store ptr %1, ptr %6, align 8
  store ptr %2, ptr %7, align 8
  store ptr %3, ptr %8, align 8
  call void @llvm.lifetime.start.p0(i64 2, ptr %9) #5
  call void @llvm.lifetime.start.p0(i64 2, ptr %10) #5
  call void @llvm.lifetime.start.p0(i64 1, ptr %11) #5
  call void @llvm.lifetime.start.p0(i64 1, ptr %12) #5
  store i16 0, ptr %9, align 2
  %18 = load ptr, ptr %6, align 8
  %19 = call zeroext i8 @tvb_get_uint8(ptr noundef %18, i32 noundef 1)
  %20 = zext i8 %19 to i32
  %21 = ashr i32 %20, 4
  %22 = trunc i32 %21 to i8
  store i8 %22, ptr %11, align 1
  %23 = load ptr, ptr %6, align 8
  %24 = call zeroext i8 @tvb_get_uint8(ptr noundef %23, i32 noundef 1)
  %25 = zext i8 %24 to i32
  %26 = and i32 %25, 15
  %27 = trunc i32 %26 to i8
  store i8 %27, ptr %12, align 1
  %28 = load ptr, ptr %6, align 8
  %29 = call zeroext i16 @tvb_get_ntohs(ptr noundef %28, i32 noundef 2)
  store i16 %29, ptr %10, align 2
  %30 = load i16, ptr %9, align 2
  %31 = zext i16 %30 to i32
  %32 = add i32 %31, 4
  %33 = trunc i32 %32 to i16
  store i16 %33, ptr %9, align 2
  %34 = load ptr, ptr %8, align 8
  %35 = icmp ne ptr %34, null
  br i1 %35, label %36, label %61

36:                                               ; preds = %4
  call void @llvm.lifetime.start.p0(i64 8, ptr %13) #5
  %37 = load ptr, ptr %8, align 8
  %38 = load i32, ptr getelementptr ([71 x i32], ptr @hf_mikey, i64 0, i64 48), align 16
  %39 = load ptr, ptr %6, align 8
  %40 = call ptr @proto_tree_add_item(ptr noundef %37, i32 noundef %38, ptr noundef %39, i32 noundef 1, i32 noundef 1, i32 noundef 0)
  %41 = load ptr, ptr %8, align 8
  %42 = load i32, ptr getelementptr ([71 x i32], ptr @hf_mikey, i64 0, i64 49), align 4
  %43 = load ptr, ptr %6, align 8
  %44 = call ptr @proto_tree_add_item(ptr noundef %41, i32 noundef %42, ptr noundef %43, i32 noundef 1, i32 noundef 1, i32 noundef 0)
  %45 = load ptr, ptr %8, align 8
  %46 = load i32, ptr getelementptr ([71 x i32], ptr @hf_mikey, i64 0, i64 50), align 8
  %47 = load ptr, ptr %6, align 8
  %48 = call ptr @proto_tree_add_item(ptr noundef %45, i32 noundef %46, ptr noundef %47, i32 noundef 2, i32 noundef 2, i32 noundef 0)
  %49 = load ptr, ptr %8, align 8
  %50 = load i32, ptr getelementptr ([71 x i32], ptr @hf_mikey, i64 0, i64 51), align 4
  %51 = load ptr, ptr %6, align 8
  %52 = load i16, ptr %10, align 2
  %53 = zext i16 %52 to i32
  %54 = call ptr @proto_tree_add_item(ptr noundef %49, i32 noundef %50, ptr noundef %51, i32 noundef 4, i32 noundef %53, i32 noundef 0)
  %55 = load ptr, ptr %8, align 8
  %56 = call ptr @proto_tree_get_parent(ptr noundef %55)
  store ptr %56, ptr %13, align 8
  %57 = load ptr, ptr %13, align 8
  %58 = load i8, ptr %11, align 1
  %59 = zext i8 %58 to i32
  %60 = call ptr @val_to_str_const(i32 noundef %59, ptr noundef @kd_vals, ptr noundef @.str.301)
  call void (ptr, ptr, ...) @proto_item_append_text(ptr noundef %57, ptr noundef @.str.305, ptr noundef %60)
  call void @llvm.lifetime.end.p0(i64 8, ptr %13) #5
  br label %61

61:                                               ; preds = %36, %4
  %62 = load i16, ptr %10, align 2
  %63 = zext i16 %62 to i32
  %64 = load i16, ptr %9, align 2
  %65 = zext i16 %64 to i32
  %66 = add i32 %65, %63
  %67 = trunc i32 %66 to i16
  store i16 %67, ptr %9, align 2
  %68 = load i8, ptr %11, align 1
  %69 = zext i8 %68 to i32
  %70 = icmp eq i32 %69, 1
  br i1 %70, label %75, label %71

71:                                               ; preds = %61
  %72 = load i8, ptr %11, align 1
  %73 = zext i8 %72 to i32
  %74 = icmp eq i32 %73, 3
  br i1 %74, label %75, label %107

75:                                               ; preds = %71, %61
  call void @llvm.lifetime.start.p0(i64 2, ptr %14) #5
  %76 = load ptr, ptr %6, align 8
  %77 = load i16, ptr %9, align 2
  %78 = zext i16 %77 to i32
  %79 = call zeroext i16 @tvb_get_ntohs(ptr noundef %76, i32 noundef %78)
  store i16 %79, ptr %14, align 2
  %80 = load i16, ptr %14, align 2
  %81 = zext i16 %80 to i32
  %82 = icmp sgt i32 %81, 0
  br i1 %82, label %83, label %99

83:                                               ; preds = %75
  %84 = load ptr, ptr %8, align 8
  %85 = load i32, ptr getelementptr ([71 x i32], ptr @hf_mikey, i64 0, i64 52), align 16
  %86 = load ptr, ptr %6, align 8
  %87 = load i16, ptr %9, align 2
  %88 = zext i16 %87 to i32
  %89 = call ptr @proto_tree_add_item(ptr noundef %84, i32 noundef %85, ptr noundef %86, i32 noundef %88, i32 noundef 2, i32 noundef 0)
  %90 = load ptr, ptr %8, align 8
  %91 = load i32, ptr getelementptr ([71 x i32], ptr @hf_mikey, i64 0, i64 53), align 4
  %92 = load ptr, ptr %6, align 8
  %93 = load i16, ptr %9, align 2
  %94 = zext i16 %93 to i32
  %95 = add i32 %94, 2
  %96 = load i16, ptr %14, align 2
  %97 = zext i16 %96 to i32
  %98 = call ptr @proto_tree_add_item(ptr noundef %90, i32 noundef %91, ptr noundef %92, i32 noundef %95, i32 noundef %97, i32 noundef 0)
  br label %99

99:                                               ; preds = %83, %75
  %100 = load i16, ptr %14, align 2
  %101 = zext i16 %100 to i32
  %102 = add i32 2, %101
  %103 = load i16, ptr %9, align 2
  %104 = zext i16 %103 to i32
  %105 = add i32 %104, %102
  %106 = trunc i32 %105 to i16
  store i16 %106, ptr %9, align 2
  call void @llvm.lifetime.end.p0(i64 2, ptr %14) #5
  br label %107

107:                                              ; preds = %99, %71
  %108 = load i8, ptr %12, align 1
  %109 = zext i8 %108 to i32
  %110 = icmp eq i32 %109, 2
  br i1 %110, label %111, label %176

111:                                              ; preds = %107
  call void @llvm.lifetime.start.p0(i64 2, ptr %15) #5
  call void @llvm.lifetime.start.p0(i64 2, ptr %16) #5
  %112 = load ptr, ptr %6, align 8
  %113 = load i16, ptr %9, align 2
  %114 = zext i16 %113 to i32
  %115 = call zeroext i8 @tvb_get_uint8(ptr noundef %112, i32 noundef %114)
  %116 = zext i8 %115 to i16
  store i16 %116, ptr %15, align 2
  %117 = load ptr, ptr %8, align 8
  %118 = load i32, ptr getelementptr ([71 x i32], ptr @hf_mikey, i64 0, i64 54), align 8
  %119 = load ptr, ptr %6, align 8
  %120 = load i16, ptr %9, align 2
  %121 = zext i16 %120 to i32
  %122 = call ptr @proto_tree_add_item(ptr noundef %117, i32 noundef %118, ptr noundef %119, i32 noundef %121, i32 noundef 1, i32 noundef 0)
  %123 = load i16, ptr %15, align 2
  %124 = zext i16 %123 to i32
  %125 = icmp sgt i32 %124, 0
  br i1 %125, label %126, label %136

126:                                              ; preds = %111
  %127 = load ptr, ptr %8, align 8
  %128 = load i32, ptr getelementptr ([71 x i32], ptr @hf_mikey, i64 0, i64 55), align 4
  %129 = load ptr, ptr %6, align 8
  %130 = load i16, ptr %9, align 2
  %131 = zext i16 %130 to i32
  %132 = add i32 %131, 1
  %133 = load i16, ptr %15, align 2
  %134 = zext i16 %133 to i32
  %135 = call ptr @proto_tree_add_item(ptr noundef %127, i32 noundef %128, ptr noundef %129, i32 noundef %132, i32 noundef %134, i32 noundef 0)
  br label %136

136:                                              ; preds = %126, %111
  %137 = load i16, ptr %15, align 2
  %138 = zext i16 %137 to i32
  %139 = add i32 1, %138
  %140 = load i16, ptr %9, align 2
  %141 = zext i16 %140 to i32
  %142 = add i32 %141, %139
  %143 = trunc i32 %142 to i16
  store i16 %143, ptr %9, align 2
  %144 = load ptr, ptr %6, align 8
  %145 = load i16, ptr %9, align 2
  %146 = zext i16 %145 to i32
  %147 = call zeroext i8 @tvb_get_uint8(ptr noundef %144, i32 noundef %146)
  %148 = zext i8 %147 to i16
  store i16 %148, ptr %16, align 2
  %149 = load ptr, ptr %8, align 8
  %150 = load i32, ptr getelementptr ([71 x i32], ptr @hf_mikey, i64 0, i64 56), align 16
  %151 = load ptr, ptr %6, align 8
  %152 = load i16, ptr %9, align 2
  %153 = zext i16 %152 to i32
  %154 = call ptr @proto_tree_add_item(ptr noundef %149, i32 noundef %150, ptr noundef %151, i32 noundef %153, i32 noundef 1, i32 noundef 0)
  %155 = load i16, ptr %16, align 2
  %156 = zext i16 %155 to i32
  %157 = icmp sgt i32 %156, 0
  br i1 %157, label %158, label %168

158:                                              ; preds = %136
  %159 = load ptr, ptr %8, align 8
  %160 = load i32, ptr getelementptr ([71 x i32], ptr @hf_mikey, i64 0, i64 57), align 4
  %161 = load ptr, ptr %6, align 8
  %162 = load i16, ptr %9, align 2
  %163 = zext i16 %162 to i32
  %164 = add i32 %163, 1
  %165 = load i16, ptr %16, align 2
  %166 = zext i16 %165 to i32
  %167 = call ptr @proto_tree_add_item(ptr noundef %159, i32 noundef %160, ptr noundef %161, i32 noundef %164, i32 noundef %166, i32 noundef 0)
  br label %168

168:                                              ; preds = %158, %136
  %169 = load i16, ptr %16, align 2
  %170 = zext i16 %169 to i32
  %171 = add i32 1, %170
  %172 = load i16, ptr %9, align 2
  %173 = zext i16 %172 to i32
  %174 = add i32 %173, %171
  %175 = trunc i32 %174 to i16
  store i16 %175, ptr %9, align 2
  call void @llvm.lifetime.end.p0(i64 2, ptr %16) #5
  call void @llvm.lifetime.end.p0(i64 2, ptr %15) #5
  br label %214

176:                                              ; preds = %107
  %177 = load i8, ptr %12, align 1
  %178 = zext i8 %177 to i32
  %179 = icmp eq i32 %178, 1
  br i1 %179, label %180, label %213

180:                                              ; preds = %176
  call void @llvm.lifetime.start.p0(i64 2, ptr %17) #5
  %181 = load ptr, ptr %6, align 8
  %182 = load i16, ptr %9, align 2
  %183 = zext i16 %182 to i32
  %184 = call zeroext i8 @tvb_get_uint8(ptr noundef %181, i32 noundef %183)
  %185 = zext i8 %184 to i16
  store i16 %185, ptr %17, align 2
  %186 = load ptr, ptr %8, align 8
  %187 = load i32, ptr getelementptr ([71 x i32], ptr @hf_mikey, i64 0, i64 58), align 8
  %188 = load ptr, ptr %6, align 8
  %189 = load i16, ptr %9, align 2
  %190 = zext i16 %189 to i32
  %191 = call ptr @proto_tree_add_item(ptr noundef %186, i32 noundef %187, ptr noundef %188, i32 noundef %190, i32 noundef 1, i32 noundef 0)
  %192 = load i16, ptr %17, align 2
  %193 = zext i16 %192 to i32
  %194 = icmp sgt i32 %193, 0
  br i1 %194, label %195, label %205

195:                                              ; preds = %180
  %196 = load ptr, ptr %8, align 8
  %197 = load i32, ptr getelementptr ([71 x i32], ptr @hf_mikey, i64 0, i64 59), align 4
  %198 = load ptr, ptr %6, align 8
  %199 = load i16, ptr %9, align 2
  %200 = zext i16 %199 to i32
  %201 = add i32 %200, 1
  %202 = load i16, ptr %17, align 2
  %203 = zext i16 %202 to i32
  %204 = call ptr @proto_tree_add_item(ptr noundef %196, i32 noundef %197, ptr noundef %198, i32 noundef %201, i32 noundef %203, i32 noundef 0)
  br label %205

205:                                              ; preds = %195, %180
  %206 = load i16, ptr %17, align 2
  %207 = zext i16 %206 to i32
  %208 = add i32 1, %207
  %209 = load i16, ptr %9, align 2
  %210 = zext i16 %209 to i32
  %211 = add i32 %210, %208
  %212 = trunc i32 %211 to i16
  store i16 %212, ptr %9, align 2
  call void @llvm.lifetime.end.p0(i64 2, ptr %17) #5
  br label %213

213:                                              ; preds = %205, %176
  br label %214

214:                                              ; preds = %213, %168
  %215 = load i16, ptr %9, align 2
  %216 = zext i16 %215 to i32
  call void @llvm.lifetime.end.p0(i64 1, ptr %12) #5
  call void @llvm.lifetime.end.p0(i64 1, ptr %11) #5
  call void @llvm.lifetime.end.p0(i64 2, ptr %10) #5
  call void @llvm.lifetime.end.p0(i64 2, ptr %9) #5
  ret i32 %216
}