; Function Attrs: null_pointer_is_valid sspstrong uwtable
define internal range(i32 0, 65536) i32 @dissect_payload_keydata(ptr readnone captures(none) %0, ptr noundef %1, ptr readnone captures(none) %2, ptr noundef %3) #0 {
  %5 = tail call zeroext i8 @tvb_get_uint8(ptr noundef %1, i32 noundef 1)
  %6 = tail call zeroext i8 @tvb_get_uint8(ptr noundef %1, i32 noundef 1)
  %7 = and i8 %6, 15
  %8 = tail call zeroext i16 @tvb_get_ntohs(ptr noundef %1, i32 noundef 2)
  %.not = icmp eq ptr %3, null
  br i1 %.not, label %23, label %9

9:                                                ; preds = %4
  %10 = lshr i8 %5, 4
  %11 = load i32, ptr getelementptr inbounds nuw (i8, ptr @hf_mikey, i64 192), align 16
  %12 = tail call ptr @proto_tree_add_item(ptr noundef nonnull %3, i32 noundef %11, ptr noundef %1, i32 noundef 1, i32 noundef 1, i32 noundef 0)
  %13 = load i32, ptr getelementptr inbounds nuw (i8, ptr @hf_mikey, i64 196), align 4
  %14 = tail call ptr @proto_tree_add_item(ptr noundef nonnull %3, i32 noundef %13, ptr noundef %1, i32 noundef 1, i32 noundef 1, i32 noundef 0)
  %15 = load i32, ptr getelementptr inbounds nuw (i8, ptr @hf_mikey, i64 200), align 8
  %16 = tail call ptr @proto_tree_add_item(ptr noundef nonnull %3, i32 noundef %15, ptr noundef %1, i32 noundef 2, i32 noundef 2, i32 noundef 0)
  %17 = load i32, ptr getelementptr inbounds nuw (i8, ptr @hf_mikey, i64 204), align 4
  %18 = zext i16 %8 to i32
  %19 = tail call ptr @proto_tree_add_item(ptr noundef nonnull %3, i32 noundef %17, ptr noundef %1, i32 noundef 4, i32 noundef %18, i32 noundef 0)
  %20 = tail call ptr @proto_tree_get_parent(ptr noundef nonnull %3)
  %21 = zext nneg i8 %10 to i32
  %22 = tail call ptr @val_to_str_const(i32 noundef %21, ptr noundef nonnull @kd_vals, ptr noundef nonnull @.str.301)
  tail call void (ptr, ptr, ...) @proto_item_append_text(ptr noundef %20, ptr noundef nonnull @.str.305, ptr noundef %22)
  br label %23

23:                                               ; preds = %9, %4
  %24 = add i16 %8, 4
  %25 = and i8 %5, -48
  %or.cond = icmp eq i8 %25, 16
  br i1 %or.cond, label %26, label %39

26:                                               ; preds = %23
  %27 = zext i16 %24 to i32
  %28 = tail call zeroext i16 @tvb_get_ntohs(ptr noundef %1, i32 noundef %27)
  %.not79 = icmp eq i16 %28, 0
  br i1 %.not79, label %36, label %29

29:                                               ; preds = %26
  %30 = zext i16 %28 to i32
  %31 = load i32, ptr getelementptr inbounds nuw (i8, ptr @hf_mikey, i64 208), align 16
  %32 = tail call ptr @proto_tree_add_item(ptr noundef %3, i32 noundef %31, ptr noundef %1, i32 noundef %27, i32 noundef 2, i32 noundef 0)
  %33 = load i32, ptr getelementptr inbounds nuw (i8, ptr @hf_mikey, i64 212), align 4
  %34 = add nuw nsw i32 %27, 2
  %35 = tail call ptr @proto_tree_add_item(ptr noundef %3, i32 noundef %33, ptr noundef %1, i32 noundef %34, i32 noundef %30, i32 noundef 0)
  br label %36

36:                                               ; preds = %29, %26
  %37 = add i16 %8, 6
  %38 = add i16 %37, %28
  br label %39

39:                                               ; preds = %23, %36
  %.0 = phi i16 [ %38, %36 ], [ %24, %23 ]
  switch i8 %7, label %81 [
    i8 2, label %40
    i8 1, label %67
  ]

40:                                               ; preds = %39
  %41 = zext i16 %.0 to i32
  %42 = tail call zeroext i8 @tvb_get_uint8(ptr noundef %1, i32 noundef %41)
  %43 = load i32, ptr getelementptr inbounds nuw (i8, ptr @hf_mikey, i64 216), align 8
  %44 = tail call ptr @proto_tree_add_item(ptr noundef %3, i32 noundef %43, ptr noundef %1, i32 noundef %41, i32 noundef 1, i32 noundef 0)
  %.not81 = icmp eq i8 %42, 0
  br i1 %.not81, label %50, label %45

45:                                               ; preds = %40
  %46 = zext i8 %42 to i32
  %47 = load i32, ptr getelementptr inbounds nuw (i8, ptr @hf_mikey, i64 220), align 4
  %48 = add nuw nsw i32 %41, 1
  %49 = tail call ptr @proto_tree_add_item(ptr noundef %3, i32 noundef %47, ptr noundef %1, i32 noundef %48, i32 noundef %46, i32 noundef 0)
  br label %50

50:                                               ; preds = %45, %40
  %51 = zext i8 %42 to i16
  %52 = add i16 %.0, 1
  %53 = add i16 %52, %51
  %54 = zext i16 %53 to i32
  %55 = tail call zeroext i8 @tvb_get_uint8(ptr noundef %1, i32 noundef %54)
  %56 = load i32, ptr getelementptr inbounds nuw (i8, ptr @hf_mikey, i64 224), align 16
  %57 = tail call ptr @proto_tree_add_item(ptr noundef %3, i32 noundef %56, ptr noundef %1, i32 noundef %54, i32 noundef 1, i32 noundef 0)
  %.not82 = icmp eq i8 %55, 0
  br i1 %.not82, label %63, label %58

58:                                               ; preds = %50
  %59 = zext i8 %55 to i32
  %60 = load i32, ptr getelementptr inbounds nuw (i8, ptr @hf_mikey, i64 228), align 4
  %61 = add nuw nsw i32 %54, 1
  %62 = tail call ptr @proto_tree_add_item(ptr noundef %3, i32 noundef %60, ptr noundef %1, i32 noundef %61, i32 noundef %59, i32 noundef 0)
  br label %63

63:                                               ; preds = %58, %50
  %64 = zext i8 %55 to i16
  %65 = add i16 %53, 1
  %66 = add i16 %65, %64
  br label %81

67:                                               ; preds = %39
  %68 = zext i16 %.0 to i32
  %69 = tail call zeroext i8 @tvb_get_uint8(ptr noundef %1, i32 noundef %68)
  %70 = load i32, ptr getelementptr inbounds nuw (i8, ptr @hf_mikey, i64 232), align 8
  %71 = tail call ptr @proto_tree_add_item(ptr noundef %3, i32 noundef %70, ptr noundef %1, i32 noundef %68, i32 noundef 1, i32 noundef 0)
  %.not80 = icmp eq i8 %69, 0
  br i1 %.not80, label %77, label %72

72:                                               ; preds = %67
  %73 = zext i8 %69 to i32
  %74 = load i32, ptr getelementptr inbounds nuw (i8, ptr @hf_mikey, i64 236), align 4
  %75 = add nuw nsw i32 %68, 1
  %76 = tail call ptr @proto_tree_add_item(ptr noundef %3, i32 noundef %74, ptr noundef %1, i32 noundef %75, i32 noundef %73, i32 noundef 0)
  br label %77

77:                                               ; preds = %72, %67
  %78 = zext i8 %69 to i16
  %79 = add i16 %.0, 1
  %80 = add i16 %79, %78
  br label %81

81:                                               ; preds = %39, %77, %63
  %.1 = phi i16 [ %66, %63 ], [ %80, %77 ], [ %.0, %39 ]
  %82 = zext i16 %.1 to i32
  ret i32 %82
}